target datalayout = "e-m:e-p270:32:32-p271:32:32-p272:64:64-i64:64-i128:128-f80:128-n8:16:32:64-S128"
target triple = "x86_64-pc-linux-gnu"

%"class.icu_77::UnicodeString" = type { %"class.icu_77::Replaceable", %"union.icu_77::UnicodeString::StackBufferOrFields" }
%"class.icu_77::Replaceable" = type { %"class.icu_77::UObject" }
%"class.icu_77::UObject" = type { ptr }
%"union.icu_77::UnicodeString::StackBufferOrFields" = type { %struct.anon.0, [32 x i8] }
%struct.anon.0 = type { i16, i32, i32, ptr }

@_ZL3out = internal global ptr null, align 8
@.str.36 = private unnamed_addr constant [2 x i8] c" \00", align 1
@.str.37 = private unnamed_addr constant [5 x i8] c" = \22\00", align 1
@.str.38 = private unnamed_addr constant [2 x i8] c"\22\00", align 1

; Function Attrs: mustprogress uwtable
define internal void @_ZL14printAttributePKcS0_i(ptr noundef %0, ptr noundef %1, i32 noundef %2) #2 personality ptr @__gxx_personality_v0 {
  %4 = alloca ptr, align 8
  %5 = alloca ptr, align 8
  %6 = alloca i32, align 4
  %7 = alloca %"class.icu_77::UnicodeString", align 8
  %8 = alloca ptr, align 8
  %9 = alloca i32, align 4
  %10 = alloca %"class.icu_77::UnicodeString", align 8
  %11 = alloca %"class.icu_77::UnicodeString", align 8
  %12 = alloca %"class.icu_77::UnicodeString", align 8
  %13 = alloca %"class.icu_77::UnicodeString", align 8
  store ptr %0, ptr %4, align 8, !tbaa !4
  store ptr %1, ptr %5, align 8, !tbaa !4
  store i32 %2, ptr %6, align 4, !tbaa !9
  %14 = load ptr, ptr @_ZL3out, align 8, !tbaa !27
  call void @_ZN6icu_7713UnicodeStringC1EPKc(ptr noundef nonnull align 8 dereferenceable(64) %7, ptr noundef @.str.36)
  %15 = invoke noundef i32 @_ZL15write_utf8_fileP11_FileStreamN6icu_7713UnicodeStringE(ptr noundef %14, ptr noundef %7)
          to label %16 unwind label %31

16:                                               ; preds = %3
  call void @_ZN6icu_7713UnicodeStringD1Ev(ptr noundef nonnull align 8 dereferenceable(64) %7) #12
  %17 = load ptr, ptr @_ZL3out, align 8, !tbaa !27
  %18 = load ptr, ptr %4, align 8, !tbaa !4
  call void @_ZN6icu_7713UnicodeStringC1EPKc(ptr noundef nonnull align 8 dereferenceable(64) %10, ptr noundef %18)
  %19 = invoke noundef i32 @_ZL15write_utf8_fileP11_FileStreamN6icu_7713UnicodeStringE(ptr noundef %17, ptr noundef %10)
          to label %20 unwind label %35

20:                                               ; preds = %16
  call void @_ZN6icu_7713UnicodeStringD1Ev(ptr noundef nonnull align 8 dereferenceable(64) %10) #12
  %21 = load ptr, ptr @_ZL3out, align 8, !tbaa !27
  call void @_ZN6icu_7713UnicodeStringC1EPKc(ptr noundef nonnull align 8 dereferenceable(64) %11, ptr noundef @.str.37)
  %22 = invoke noundef i32 @_ZL15write_utf8_fileP11_FileStreamN6icu_7713UnicodeStringE(ptr noundef %21, ptr noundef %11)
          to label %23 unwind label %39

23:                                               ; preds = %20
  call void @_ZN6icu_7713UnicodeStringD1Ev(ptr noundef nonnull align 8 dereferenceable(64) %11) #12
  %24 = load ptr, ptr @_ZL3out, align 8, !tbaa !27
  %25 = load ptr, ptr %5, align 8, !tbaa !4
  call void @_ZN6icu_7713UnicodeStringC1EPKc(ptr noundef nonnull align 8 dereferenceable(64) %12, ptr noundef %25)
  %26 = invoke noundef i32 @_ZL15write_utf8_fileP11_FileStreamN6icu_7713UnicodeStringE(ptr noundef %24, ptr noundef %12)
          to label %27 unwind label %43

27:                                               ; preds = %23
  call void @_ZN6icu_7713UnicodeStringD1Ev(ptr noundef nonnull align 8 dereferenceable(64) %12) #12
  %28 = load ptr, ptr @_ZL3out, align 8, !tbaa !27
  call void @_ZN6icu_7713UnicodeStringC1EPKc(ptr noundef nonnull align 8 dereferenceable(64) %13, ptr noundef @.str.38)
  %29 = invoke noundef i32 @_ZL15write_utf8_fileP11_FileStreamN6icu_7713UnicodeStringE(ptr noundef %28, ptr noundef %13)
          to label %30 unwind label %47

30:                                               ; preds = %27
  call void @_ZN6icu_7713UnicodeStringD1Ev(ptr noundef nonnull align 8 dereferenceable(64) %13) #12
  ret void

31:                                               ; preds = %3
  %32 = landingpad { ptr, i32 }
          cleanup
  %33 = extractvalue { ptr, i32 } %32, 0
  store ptr %33, ptr %8, align 8
  %34 = extractvalue { ptr, i32 } %32, 1
  store i32 %34, ptr %9, align 4
  call void @_ZN6icu_7713UnicodeStringD1Ev(ptr noundef nonnull align 8 dereferenceable(64) %7) #12
  br label %51

35:                                               ; preds = %16
  %36 = landingpad { ptr, i32 }
          cleanup
  %37 = extractvalue { ptr, i32 } %36, 0
  store ptr %37, ptr %8, align 8
  %38 = extractvalue { ptr, i32 } %36, 1
  store i32 %38, ptr %9, align 4
  call void @_ZN6icu_7713UnicodeStringD1Ev(ptr noundef nonnull align 8 dereferenceable(64) %10) #12
  br label %51

39:                                               ; preds = %20
  %40 = landingpad { ptr, i32 }
          cleanup
  %41 = extractvalue { ptr, i32 } %40, 0
  store ptr %41, ptr %8, align 8
  %42 = extractvalue { ptr, i32 } %40, 1
  store i32 %42, ptr %9, align 4
  call void @_ZN6icu_7713UnicodeStringD1Ev(ptr noundef nonnull align 8 dereferenceable(64) %11) #12
  br label %51

43:                                               ; preds = %23
  %44 = landingpad { ptr, i32 }
          cleanup
  %45 = extractvalue { ptr, i32 } %44, 0
  store ptr %45, ptr %8, align 8
  %46 = extractvalue { ptr, i32 } %44, 1
  store i32 %46, ptr %9, align 4
  call void @_ZN6icu_7713UnicodeStringD1Ev(ptr noundef nonnull align 8 dereferenceable(64) %12) #12
  br label %51

47:                                               ; preds = %27
  %48 = landingpad { ptr, i32 }
          cleanup
  %49 = extractvalue { ptr, i32 } %48, 0
  store ptr %49, ptr %8, align 8
  %50 = extractvalue { ptr, i32 } %48, 1
  store i32 %50, ptr %9, align 4
  call void @_ZN6icu_7713UnicodeStringD1Ev(ptr noundef nonnull align 8 dereferenceable(64) %13) #12
  br label %51

51:                                               ; preds = %47, %43, %39, %35, %31
  %52 = load ptr, ptr %8, align 8
  %53 = load i32, ptr %9, align 4
  %54 = insertvalue { ptr, i32 } poison, ptr %52, 0
  %55 = insertvalue { ptr, i32 } %54, i32 %53, 1
  resume { ptr, i32 } %55
}