; Function Attrs: mustprogress uwtable
define internal fastcc void @_ZL14printAttributePKcS0_i(ptr noundef %0, ptr noundef %1) unnamed_addr #2 personality ptr @__gxx_personality_v0 {
  %3 = alloca %"class.icu_77::UnicodeString", align 8
  %4 = alloca %"class.icu_77::UnicodeString", align 8
  %5 = alloca %"class.icu_77::UnicodeString", align 8
  %6 = alloca %"class.icu_77::UnicodeString", align 8
  %7 = alloca %"class.icu_77::UnicodeString", align 8
  %8 = load ptr, ptr @_ZL3out, align 8, !tbaa !21
  call void @_ZN6icu_7713UnicodeStringC1EPKc(ptr noundef nonnull align 8 dereferenceable(64) %3, ptr noundef nonnull @.str.36)
  invoke fastcc void @_ZL15write_utf8_fileP11_FileStreamN6icu_7713UnicodeStringE(ptr noundef %8, ptr noundef %3)
          to label %9 unwind label %18

9:                                                ; preds = %2
  call void @_ZN6icu_7713UnicodeStringD1Ev(ptr noundef nonnull align 8 dereferenceable(64) %3) #13
  %10 = load ptr, ptr @_ZL3out, align 8, !tbaa !21
  call void @_ZN6icu_7713UnicodeStringC1EPKc(ptr noundef nonnull align 8 dereferenceable(64) %4, ptr noundef %0)
  invoke fastcc void @_ZL15write_utf8_fileP11_FileStreamN6icu_7713UnicodeStringE(ptr noundef %10, ptr noundef %4)
          to label %11 unwind label %20

11:                                               ; preds = %9
  call void @_ZN6icu_7713UnicodeStringD1Ev(ptr noundef nonnull align 8 dereferenceable(64) %4) #13
  %12 = load ptr, ptr @_ZL3out, align 8, !tbaa !21
  call void @_ZN6icu_7713UnicodeStringC1EPKc(ptr noundef nonnull align 8 dereferenceable(64) %5, ptr noundef nonnull @.str.37)
  invoke fastcc void @_ZL15write_utf8_fileP11_FileStreamN6icu_7713UnicodeStringE(ptr noundef %12, ptr noundef %5)
          to label %13 unwind label %22

13:                                               ; preds = %11
  call void @_ZN6icu_7713UnicodeStringD1Ev(ptr noundef nonnull align 8 dereferenceable(64) %5) #13
  %14 = load ptr, ptr @_ZL3out, align 8, !tbaa !21
  call void @_ZN6icu_7713UnicodeStringC1EPKc(ptr noundef nonnull align 8 dereferenceable(64) %6, ptr noundef %1)
  invoke fastcc void @_ZL15write_utf8_fileP11_FileStreamN6icu_7713UnicodeStringE(ptr noundef %14, ptr noundef %6)
          to label %15 unwind label %24

15:                                               ; preds = %13
  call void @_ZN6icu_7713UnicodeStringD1Ev(ptr noundef nonnull align 8 dereferenceable(64) %6) #13
  %16 = load ptr, ptr @_ZL3out, align 8, !tbaa !21
  call void @_ZN6icu_7713UnicodeStringC1EPKc(ptr noundef nonnull align 8 dereferenceable(64) %7, ptr noundef nonnull @.str.38)
  invoke fastcc void @_ZL15write_utf8_fileP11_FileStreamN6icu_7713UnicodeStringE(ptr noundef %16, ptr noundef %7)
          to label %17 unwind label %26

17:                                               ; preds = %15
  call void @_ZN6icu_7713UnicodeStringD1Ev(ptr noundef nonnull align 8 dereferenceable(64) %7) #13
  ret void

18:                                               ; preds = %2
  %19 = landingpad { ptr, i32 }
          cleanup
  br label %28

20:                                               ; preds = %9
  %21 = landingpad { ptr, i32 }
          cleanup
  br label %28

22:                                               ; preds = %11
  %23 = landingpad { ptr, i32 }
          cleanup
  br label %28

24:                                               ; preds = %13
  %25 = landingpad { ptr, i32 }
          cleanup
  br label %28

26:                                               ; preds = %15
  %27 = landingpad { ptr, i32 }
          cleanup
  br label %28

28:                                               ; preds = %26, %24, %22, %20, %18
  %.sink = phi ptr [ %7, %26 ], [ %6, %24 ], [ %5, %22 ], [ %4, %20 ], [ %3, %18 ]
  %.pn = phi { ptr, i32 } [ %27, %26 ], [ %25, %24 ], [ %23, %22 ], [ %21, %20 ], [ %19, %18 ]
  call void @_ZN6icu_7713UnicodeStringD1Ev(ptr noundef nonnull align 8 dereferenceable(64) %.sink) #13
  resume { ptr, i32 } %.pn
}